target datalayout = "e-m:e-p270:32:32-p271:32:32-p272:64:64-i64:64-i128:128-f80:128-n8:16:32:64-S128"
target triple = "x86_64-pc-linux-gnu"

@.str.266 = private unnamed_addr constant [6 x i8] c"pn_io\00", align 1
@bDissector_Called_Once_Before = internal global i8 0, align 1
@.str.519 = private unnamed_addr constant [23 x i8] c"openSAFETY/Profinet IO\00", align 1

; Function Attrs: null_pointer_is_valid sspstrong uwtable
define internal i32 @dissect_opensafety_pn_io(ptr noundef %0, ptr noundef %1, ptr noundef %2, ptr noundef %3) #0 {
  %5 = alloca ptr, align 8
  %6 = alloca ptr, align 8
  %7 = alloca ptr, align 8
  %8 = alloca ptr, align 8
  %9 = alloca i32, align 4
  store ptr %0, ptr %5, align 8
  store ptr %1, ptr %6, align 8
  store ptr %2, ptr %7, align 8
  store ptr %3, ptr %8, align 8
  call void @llvm.lifetime.start.p0(i64 4, ptr %9) #12
  store i32 0, ptr %9, align 4
  %10 = load i8, ptr @bDissector_Called_Once_Before, align 1, !range !6, !noundef !7
  %11 = trunc i8 %10 to i1
  %12 = zext i1 %11 to i32
  %13 = icmp eq i32 %12, 0
  br i1 %13, label %14, label %19

14:                                               ; preds = %4
  store i8 1, ptr @bDissector_Called_Once_Before, align 1
  %15 = load ptr, ptr %5, align 8
  %16 = load ptr, ptr %6, align 8
  %17 = load ptr, ptr %7, align 8
  %18 = call i32 @opensafety_package_dissector(ptr noundef @.str.519, ptr noundef @.str.266, i1 noundef zeroext false, i1 noundef zeroext false, i8 noundef zeroext 0, ptr noundef %15, ptr noundef %16, ptr noundef %17, i8 noundef zeroext 0)
  store i32 %18, ptr %9, align 4
  store i8 0, ptr @bDissector_Called_Once_Before, align 1
  br label %19

19:                                               ; preds = %14, %4
  %20 = load i32, ptr %9, align 4
  call void @llvm.lifetime.end.p0(i64 4, ptr %9) #12
  ret i32 %20
}