; Function Attrs: null_pointer_is_valid sspstrong uwtable
define internal range(i32 0, 2) i32 @dissect_opensafety_pn_io(ptr noundef %0, ptr noundef %1, ptr noundef %2, ptr readnone captures(none) %3) #0 {
  %.b3 = load i1, ptr @bDissector_Called_Once_Before, align 1
  br i1 %.b3, label %7, label %5

5:                                                ; preds = %4
  store i1 true, ptr @bDissector_Called_Once_Before, align 1
  %6 = tail call fastcc i32 @opensafety_package_dissector(ptr noundef nonnull @.str.519, ptr noundef nonnull @.str.266, i1 noundef zeroext false, i1 noundef zeroext false, i8 noundef zeroext 0, ptr noundef %0, ptr noundef %1, ptr noundef %2, i8 noundef zeroext 0)
  store i1 false, ptr @bDissector_Called_Once_Before, align 1
  br label %7

7:                                                ; preds = %5, %4
  %.0 = phi i32 [ %6, %5 ], [ 0, %4 ]
  ret i32 %.0
}